; Function Attrs: null_pointer_is_valid sspstrong uwtable
define internal i32 @dissect_juniper_ether(ptr noundef %0, ptr noundef %1, ptr noundef %2, ptr readnone captures(none) %3) #0 {
  %5 = alloca i8, align 1
  call void @llvm.lifetime.start.p0(i64 1, ptr nonnull %5) #3
  %6 = getelementptr inbounds nuw i8, ptr %1, i64 8
  %7 = load ptr, ptr %6, align 8
  tail call void @col_set_str(ptr noundef %7, i32 noundef 35, ptr noundef nonnull @.str.234)
  %8 = load ptr, ptr %6, align 8
  tail call void @col_clear(ptr noundef %8, i32 noundef 25)
  %9 = load i32, ptr @ett_juniper, align 4
  %10 = tail call ptr @proto_tree_add_subtree(ptr noundef %2, ptr noundef %0, i32 noundef 0, i32 noundef 4, i32 noundef %9, ptr noundef null, ptr noundef nonnull @.str.234)
  %11 = call fastcc i32 @dissect_juniper_header(ptr noundef %0, ptr noundef %1, ptr noundef %2, ptr noundef %10, ptr noundef nonnull %5)
  %12 = icmp eq i32 %11, -1
  br i1 %12, label %29, label %13

13:                                               ; preds = %4
  %14 = load i32, ptr @hf_juniper_payload_type, align 4
  %15 = tail call ptr @proto_tree_add_uint(ptr noundef %10, i32 noundef %14, ptr noundef %0, i32 noundef %11, i32 noundef 0, i32 noundef 204)
  %.not.i.i = icmp eq ptr %15, null
  br i1 %.not.i.i, label %proto_item_set_generated.exit.i, label %16

16:                                               ; preds = %13
  %17 = getelementptr inbounds nuw i8, ptr %15, i64 40
  %18 = load ptr, ptr %17, align 8
  %.not5.i.i = icmp eq ptr %18, null
  br i1 %.not5.i.i, label %proto_item_set_generated.exit.i, label %19

19:                                               ; preds = %16
  %20 = getelementptr inbounds nuw i8, ptr %18, i64 28
  %21 = load i32, ptr %20, align 4
  %22 = or i32 %21, 2
  store i32 %22, ptr %20, align 4
  br label %proto_item_set_generated.exit.i

proto_item_set_generated.exit.i:                  ; preds = %19, %16, %13
  tail call void @proto_item_set_len(ptr noundef %10, i32 noundef %11)
  %23 = tail call ptr @tvb_new_subset_remaining(ptr noundef %0, i32 noundef %11)
  %24 = load ptr, ptr @payload_table, align 8
  %25 = tail call i32 @dissector_try_uint(ptr noundef %24, i32 noundef 204, ptr noundef %23, ptr noundef %1, ptr noundef %2)
  %.not.i = icmp eq i32 %25, 0
  br i1 %.not.i, label %26, label %dissect_juniper_payload_proto.exit

26:                                               ; preds = %proto_item_set_generated.exit.i
  %27 = tail call i32 @call_data_dissector(ptr noundef %23, ptr noundef %1, ptr noundef %2)
  br label %dissect_juniper_payload_proto.exit

dissect_juniper_payload_proto.exit:               ; preds = %proto_item_set_generated.exit.i, %26
  %28 = tail call i32 @tvb_captured_length(ptr noundef %0)
  br label %29

29:                                               ; preds = %4, %dissect_juniper_payload_proto.exit
  %.0 = phi i32 [ %28, %dissect_juniper_payload_proto.exit ], [ 4, %4 ]
  call void @llvm.lifetime.end.p0(i64 1, ptr nonnull %5) #3
  ret i32 %.0
}